; Function Attrs: mustprogress nounwind uwtable
define dso_local void @_ZNK4llvm3vfs18InMemoryFileSystem9printImplERNS_11raw_ostreamENS0_10FileSystem9PrintTypeEj(ptr nocapture nonnull readnone align 8 %0, ptr noundef nonnull align 8 dereferenceable(48) %1, i32 %2, i32 noundef %3) unnamed_addr #0 align 2 {
  %.not.i = icmp eq i32 %3, 0
  br i1 %.not.i, label %_ZNK4llvm3vfs10FileSystem11printIndentERNS_11raw_ostreamEj.exit, label %.lr.ph.i

.lr.ph.i:                                         ; preds = %4
  %5 = getelementptr inbounds nuw i8, ptr %1, i64 24
  %6 = getelementptr inbounds nuw i8, ptr %1, i64 32
  br label %7

7:                                                ; preds = %_ZN4llvm11raw_ostreamlsEPKc.exit.i, %.lr.ph.i
  %.03.i = phi i32 [ 0, %.lr.ph.i ], [ %19, %_ZN4llvm11raw_ostreamlsEPKc.exit.i ]
  %8 = load ptr, ptr %5, align 8
  %9 = load ptr, ptr %6, align 8
  %10 = ptrtoint ptr %8 to i64
  %11 = ptrtoint ptr %9 to i64
  %12 = sub i64 %10, %11
  %13 = icmp ult i64 %12, 2
  br i1 %13, label %14, label %16

14:                                               ; preds = %7
  %15 = tail call noundef nonnull align 8 dereferenceable(48) ptr @_ZN4llvm11raw_ostream5writeEPKcm(ptr noundef nonnull align 8 dereferenceable(48) %1, ptr noundef nonnull @.str.19, i64 noundef 2) #27
  br label %_ZN4llvm11raw_ostreamlsEPKc.exit.i

16:                                               ; preds = %7
  store i16 8224, ptr %9, align 1
  %17 = load ptr, ptr %6, align 8
  %18 = getelementptr inbounds i8, ptr %17, i64 2
  store ptr %18, ptr %6, align 8
  br label %_ZN4llvm11raw_ostreamlsEPKc.exit.i

_ZN4llvm11raw_ostreamlsEPKc.exit.i:               ; preds = %16, %14
  %19 = add nuw i32 %.03.i, 1
  %exitcond.not.i = icmp eq i32 %19, %3
  br i1 %exitcond.not.i, label %_ZNK4llvm3vfs10FileSystem11printIndentERNS_11raw_ostreamEj.exit, label %7, !llvm.loop !64

_ZNK4llvm3vfs10FileSystem11printIndentERNS_11raw_ostreamEj.exit: ; preds = %_ZN4llvm11raw_ostreamlsEPKc.exit.i, %4
  %20 = getelementptr inbounds nuw i8, ptr %1, i64 24
  %21 = load ptr, ptr %20, align 8
  %22 = getelementptr inbounds nuw i8, ptr %1, i64 32
  %23 = load ptr, ptr %22, align 8
  %24 = ptrtoint ptr %21 to i64
  %25 = ptrtoint ptr %23 to i64
  %26 = sub i64 %24, %25
  %27 = icmp ult i64 %26, 19
  br i1 %27, label %28, label %30

28:                                               ; preds = %_ZNK4llvm3vfs10FileSystem11printIndentERNS_11raw_ostreamEj.exit
  %29 = tail call noundef nonnull align 8 dereferenceable(48) ptr @_ZN4llvm11raw_ostream5writeEPKcm(ptr noundef nonnull align 8 dereferenceable(48) %1, ptr noundef nonnull @.str.2, i64 noundef 19) #27
  br label %_ZN4llvm11raw_ostreamlsEPKc.exit

30:                                               ; preds = %_ZNK4llvm3vfs10FileSystem11printIndentERNS_11raw_ostreamEj.exit
  tail call void @llvm.memcpy.p0.p0.i64(ptr noundef nonnull align 1 dereferenceable(19) %23, ptr noundef nonnull align 1 dereferenceable(19) @.str.2, i64 19, i1 false)
  %31 = load ptr, ptr %22, align 8
  %32 = getelementptr inbounds i8, ptr %31, i64 19
  store ptr %32, ptr %22, align 8
  br label %_ZN4llvm11raw_ostreamlsEPKc.exit

_ZN4llvm11raw_ostreamlsEPKc.exit:                 ; preds = %28, %30
  ret void
}